target datalayout = "e-m:e-p270:32:32-p271:32:32-p272:64:64-i64:64-i128:128-f80:128-n8:16:32:64-S128"
target triple = "x86_64-pc-linux-gnu"

%struct.string_list = type { ptr, i64, i64, i8, ptr }
%struct.string_list_item = type { ptr, ptr }

@.str.6 = private unnamed_addr constant [27 x i8] c"size_t overflow: %lu * %lu\00", align 1

; Function Attrs: inlinehint nounwind uwtable
define internal void @move_array(ptr noundef %0, ptr noundef %1, i64 noundef %2, i64 noundef %3) #5 {
  %5 = alloca ptr, align 8
  %6 = alloca ptr, align 8
  %7 = alloca i64, align 8
  %8 = alloca i64, align 8
  store ptr %0, ptr %5, align 8, !tbaa !25
  store ptr %1, ptr %6, align 8, !tbaa !25
  store i64 %2, ptr %7, align 8, !tbaa !28
  store i64 %3, ptr %8, align 8, !tbaa !28
  %9 = load i64, ptr %7, align 8, !tbaa !28
  %10 = icmp ne i64 %9, 0
  br i1 %10, label %11, label %17

11:                                               ; preds = %4
  %12 = load ptr, ptr %5, align 8, !tbaa !25
  %13 = load ptr, ptr %6, align 8, !tbaa !25
  %14 = load i64, ptr %8, align 8, !tbaa !28
  %15 = load i64, ptr %7, align 8, !tbaa !28
  %16 = call i64 @st_mult(i64 noundef %14, i64 noundef %15)
  call void @llvm.memmove.p0.p0.i64(ptr align 1 %12, ptr align 1 %13, i64 %16, i1 false)
  br label %17

17:                                               ; preds = %11, %4
  ret void
}

; Function Attrs: inlinehint nounwind uwtable
define internal i64 @st_mult(i64 noundef %0, i64 noundef %1) #5 {
  %3 = alloca i64, align 8
  %4 = alloca i64, align 8
  store i64 %0, ptr %3, align 8, !tbaa !28
  store i64 %1, ptr %4, align 8, !tbaa !28
  %5 = load i64, ptr %3, align 8, !tbaa !28
  %6 = icmp ne i64 %5, 0
  br i1 %6, label %7, label %15

7:                                                ; preds = %2
  %8 = load i64, ptr %4, align 8, !tbaa !28
  %9 = load i64, ptr %3, align 8, !tbaa !28
  %10 = udiv i64 -1, %9
  %11 = icmp ugt i64 %8, %10
  br i1 %11, label %12, label %15

12:                                               ; preds = %7
  %13 = load i64, ptr %3, align 8, !tbaa !28
  %14 = load i64, ptr %4, align 8, !tbaa !28
  call void (ptr, ...) @die(ptr noundef @.str.6, i64 noundef %13, i64 noundef %14) #10
  unreachable

15:                                               ; preds = %7, %2
  %16 = load i64, ptr %3, align 8, !tbaa !28
  %17 = load i64, ptr %4, align 8, !tbaa !28
  %18 = mul i64 %16, %17
  ret i64 %18
}

; Function Attrs: nounwind uwtable
define internal i32 @get_entry_index(ptr noundef %0, ptr noundef %1, ptr noundef %2) #0 {
  %4 = alloca i32, align 4
  %5 = alloca ptr, align 8
  %6 = alloca ptr, align 8
  %7 = alloca ptr, align 8
  %8 = alloca i32, align 4
  %9 = alloca i32, align 4
  %10 = alloca ptr, align 8
  %11 = alloca i32, align 4
  %12 = alloca i32, align 4
  %13 = alloca i32, align 4
  store ptr %0, ptr %5, align 8, !tbaa !4
  store ptr %1, ptr %6, align 8, !tbaa !9
  store ptr %2, ptr %7, align 8, !tbaa !22
  call void @llvm.lifetime.start.p0(i64 4, ptr %8) #9
  store i32 -1, ptr %8, align 4, !tbaa !11
  call void @llvm.lifetime.start.p0(i64 4, ptr %9) #9
  %14 = load ptr, ptr %5, align 8, !tbaa !4
  %15 = getelementptr inbounds nuw %struct.string_list, ptr %14, i32 0, i32 1
  %16 = load i64, ptr %15, align 8, !tbaa !17
  %17 = trunc i64 %16 to i32
  store i32 %17, ptr %9, align 4, !tbaa !11
  call void @llvm.lifetime.start.p0(i64 8, ptr %10) #9
  %18 = load ptr, ptr %5, align 8, !tbaa !4
  %19 = getelementptr inbounds nuw %struct.string_list, ptr %18, i32 0, i32 4
  %20 = load ptr, ptr %19, align 8, !tbaa !24
  %21 = icmp ne ptr %20, null
  br i1 %21, label %22, label %26

22:                                               ; preds = %3
  %23 = load ptr, ptr %5, align 8, !tbaa !4
  %24 = getelementptr inbounds nuw %struct.string_list, ptr %23, i32 0, i32 4
  %25 = load ptr, ptr %24, align 8, !tbaa !24
  br label %27

26:                                               ; preds = %3
  br label %27

27:                                               ; preds = %26, %22
  %28 = phi ptr [ %25, %22 ], [ @strcmp, %26 ]
  store ptr %28, ptr %10, align 8, !tbaa !25
  br label %29

29:                                               ; preds = %68, %27
  %30 = load i32, ptr %8, align 4, !tbaa !11
  %31 = add nsw i32 %30, 1
  %32 = load i32, ptr %9, align 4, !tbaa !11
  %33 = icmp slt i32 %31, %32
  br i1 %33, label %34, label %69

34:                                               ; preds = %29
  call void @llvm.lifetime.start.p0(i64 4, ptr %11) #9
  %35 = load i32, ptr %8, align 4, !tbaa !11
  %36 = load i32, ptr %9, align 4, !tbaa !11
  %37 = load i32, ptr %8, align 4, !tbaa !11
  %38 = sub nsw i32 %36, %37
  %39 = sdiv i32 %38, 2
  %40 = add nsw i32 %35, %39
  store i32 %40, ptr %11, align 4, !tbaa !11
  call void @llvm.lifetime.start.p0(i64 4, ptr %12) #9
  %41 = load ptr, ptr %10, align 8, !tbaa !25
  %42 = load ptr, ptr %6, align 8, !tbaa !9
  %43 = load ptr, ptr %5, align 8, !tbaa !4
  %44 = getelementptr inbounds nuw %struct.string_list, ptr %43, i32 0, i32 0
  %45 = load ptr, ptr %44, align 8, !tbaa !13
  %46 = load i32, ptr %11, align 4, !tbaa !11
  %47 = sext i32 %46 to i64
  %48 = getelementptr inbounds %struct.string_list_item, ptr %45, i64 %47
  %49 = getelementptr inbounds nuw %struct.string_list_item, ptr %48, i32 0, i32 0
  %50 = load ptr, ptr %49, align 8, !tbaa !19
  %51 = call i32 %41(ptr noundef %42, ptr noundef %50)
  store i32 %51, ptr %12, align 4, !tbaa !11
  %52 = load i32, ptr %12, align 4, !tbaa !11
  %53 = icmp slt i32 %52, 0
  br i1 %53, label %54, label %56

54:                                               ; preds = %34
  %55 = load i32, ptr %11, align 4, !tbaa !11
  store i32 %55, ptr %9, align 4, !tbaa !11
  br label %65

56:                                               ; preds = %34
  %57 = load i32, ptr %12, align 4, !tbaa !11
  %58 = icmp sgt i32 %57, 0
  br i1 %58, label %59, label %61

59:                                               ; preds = %56
  %60 = load i32, ptr %11, align 4, !tbaa !11
  store i32 %60, ptr %8, align 4, !tbaa !11
  br label %64

61:                                               ; preds = %56
  %62 = load ptr, ptr %7, align 8, !tbaa !22
  store i32 1, ptr %62, align 4, !tbaa !11
  %63 = load i32, ptr %11, align 4, !tbaa !11
  store i32 %63, ptr %4, align 4
  store i32 1, ptr %13, align 4
  br label %66

64:                                               ; preds = %59
  br label %65

65:                                               ; preds = %64, %54
  store i32 0, ptr %13, align 4
  br label %66

66:                                               ; preds = %65, %61
  call void @llvm.lifetime.end.p0(i64 4, ptr %12) #9
  call void @llvm.lifetime.end.p0(i64 4, ptr %11) #9
  %67 = load i32, ptr %13, align 4
  switch i32 %67, label %72 [
    i32 0, label %68
  ]

68:                                               ; preds = %66
  br label %29, !llvm.loop !26

69:                                               ; preds = %29
  %70 = load ptr, ptr %7, align 8, !tbaa !22
  store i32 0, ptr %70, align 4, !tbaa !11
  %71 = load i32, ptr %9, align 4, !tbaa !11
  store i32 %71, ptr %4, align 4
  store i32 1, ptr %13, align 4
  br label %72

72:                                               ; preds = %69, %66
  call void @llvm.lifetime.end.p0(i64 8, ptr %10) #9
  call void @llvm.lifetime.end.p0(i64 4, ptr %9) #9
  call void @llvm.lifetime.end.p0(i64 4, ptr %8) #9
  %73 = load i32, ptr %4, align 4
  ret i32 %73
}

; Function Attrs: nounwind uwtable
define internal i32 @add_entry(i32 noundef %0, ptr noundef %1, ptr noundef %2) #0 {
  %4 = alloca i32, align 4
  %5 = alloca i32, align 4
  %6 = alloca ptr, align 8
  %7 = alloca ptr, align 8
  %8 = alloca i32, align 4
  %9 = alloca i32, align 4
  %10 = alloca i32, align 4
  store i32 %0, ptr %5, align 4, !tbaa !11
  store ptr %1, ptr %6, align 8, !tbaa !4
  store ptr %2, ptr %7, align 8, !tbaa !9
  call void @llvm.lifetime.start.p0(i64 4, ptr %8) #9
  store i32 0, ptr %8, align 4, !tbaa !11
  call void @llvm.lifetime.start.p0(i64 4, ptr %9) #9
  %11 = load i32, ptr %5, align 4, !tbaa !11
  %12 = icmp ne i32 %11, -1
  br i1 %12, label %13, label %15

13:                                               ; preds = %3
  %14 = load i32, ptr %5, align 4, !tbaa !11
  br label %19

15:                                               ; preds = %3
  %16 = load ptr, ptr %6, align 8, !tbaa !4
  %17 = load ptr, ptr %7, align 8, !tbaa !9
  %18 = call i32 @get_entry_index(ptr noundef %16, ptr noundef %17, ptr noundef %8)
  br label %19

19:                                               ; preds = %15, %13
  %20 = phi i32 [ %14, %13 ], [ %18, %15 ]
  store i32 %20, ptr %9, align 4, !tbaa !11
  %21 = load i32, ptr %8, align 4, !tbaa !11
  %22 = icmp ne i32 %21, 0
  br i1 %22, label %23, label %26

23:                                               ; preds = %19
  %24 = load i32, ptr %9, align 4, !tbaa !11
  %25 = sub nsw i32 -1, %24
  store i32 %25, ptr %4, align 4
  store i32 1, ptr %10, align 4
  br label %137

26:                                               ; preds = %19
  br label %27

27:                                               ; preds = %26
  %28 = load ptr, ptr %6, align 8, !tbaa !4
  %29 = getelementptr inbounds nuw %struct.string_list, ptr %28, i32 0, i32 1
  %30 = load i64, ptr %29, align 8, !tbaa !17
  %31 = add i64 %30, 1
  %32 = load ptr, ptr %6, align 8, !tbaa !4
  %33 = getelementptr inbounds nuw %struct.string_list, ptr %32, i32 0, i32 2
  %34 = load i64, ptr %33, align 8, !tbaa !18
  %35 = icmp ugt i64 %31, %34
  br i1 %35, label %36, label %75

36:                                               ; preds = %27
  %37 = load ptr, ptr %6, align 8, !tbaa !4
  %38 = getelementptr inbounds nuw %struct.string_list, ptr %37, i32 0, i32 2
  %39 = load i64, ptr %38, align 8, !tbaa !18
  %40 = add i64 %39, 16
  %41 = mul i64 %40, 3
  %42 = udiv i64 %41, 2
  %43 = load ptr, ptr %6, align 8, !tbaa !4
  %44 = getelementptr inbounds nuw %struct.string_list, ptr %43, i32 0, i32 1
  %45 = load i64, ptr %44, align 8, !tbaa !17
  %46 = add i64 %45, 1
  %47 = icmp ult i64 %42, %46
  br i1 %47, label %48, label %55

48:                                               ; preds = %36
  %49 = load ptr, ptr %6, align 8, !tbaa !4
  %50 = getelementptr inbounds nuw %struct.string_list, ptr %49, i32 0, i32 1
  %51 = load i64, ptr %50, align 8, !tbaa !17
  %52 = add i64 %51, 1
  %53 = load ptr, ptr %6, align 8, !tbaa !4
  %54 = getelementptr inbounds nuw %struct.string_list, ptr %53, i32 0, i32 2
  store i64 %52, ptr %54, align 8, !tbaa !18
  br label %64

55:                                               ; preds = %36
  %56 = load ptr, ptr %6, align 8, !tbaa !4
  %57 = getelementptr inbounds nuw %struct.string_list, ptr %56, i32 0, i32 2
  %58 = load i64, ptr %57, align 8, !tbaa !18
  %59 = add i64 %58, 16
  %60 = mul i64 %59, 3
  %61 = udiv i64 %60, 2
  %62 = load ptr, ptr %6, align 8, !tbaa !4
  %63 = getelementptr inbounds nuw %struct.string_list, ptr %62, i32 0, i32 2
  store i64 %61, ptr %63, align 8, !tbaa !18
  br label %64

64:                                               ; preds = %55, %48
  %65 = load ptr, ptr %6, align 8, !tbaa !4
  %66 = getelementptr inbounds nuw %struct.string_list, ptr %65, i32 0, i32 0
  %67 = load ptr, ptr %66, align 8, !tbaa !13
  %68 = load ptr, ptr %6, align 8, !tbaa !4
  %69 = getelementptr inbounds nuw %struct.string_list, ptr %68, i32 0, i32 2
  %70 = load i64, ptr %69, align 8, !tbaa !18
  %71 = call i64 @st_mult(i64 noundef 16, i64 noundef %70)
  %72 = call ptr @xrealloc(ptr noundef %67, i64 noundef %71)
  %73 = load ptr, ptr %6, align 8, !tbaa !4
  %74 = getelementptr inbounds nuw %struct.string_list, ptr %73, i32 0, i32 0
  store ptr %72, ptr %74, align 8, !tbaa !13
  br label %75

75:                                               ; preds = %64, %27
  br label %76

76:                                               ; preds = %75
  br label %77

77:                                               ; preds = %76
  %78 = load i32, ptr %9, align 4, !tbaa !11
  %79 = sext i32 %78 to i64
  %80 = load ptr, ptr %6, align 8, !tbaa !4
  %81 = getelementptr inbounds nuw %struct.string_list, ptr %80, i32 0, i32 1
  %82 = load i64, ptr %81, align 8, !tbaa !17
  %83 = icmp ult i64 %79, %82
  br i1 %83, label %84, label %104

84:                                               ; preds = %77
  %85 = load ptr, ptr %6, align 8, !tbaa !4
  %86 = getelementptr inbounds nuw %struct.string_list, ptr %85, i32 0, i32 0
  %87 = load ptr, ptr %86, align 8, !tbaa !13
  %88 = load i32, ptr %9, align 4, !tbaa !11
  %89 = sext i32 %88 to i64
  %90 = getelementptr inbounds %struct.string_list_item, ptr %87, i64 %89
  %91 = getelementptr inbounds %struct.string_list_item, ptr %90, i64 1
  %92 = load ptr, ptr %6, align 8, !tbaa !4
  %93 = getelementptr inbounds nuw %struct.string_list, ptr %92, i32 0, i32 0
  %94 = load ptr, ptr %93, align 8, !tbaa !13
  %95 = load i32, ptr %9, align 4, !tbaa !11
  %96 = sext i32 %95 to i64
  %97 = getelementptr inbounds %struct.string_list_item, ptr %94, i64 %96
  %98 = load ptr, ptr %6, align 8, !tbaa !4
  %99 = getelementptr inbounds nuw %struct.string_list, ptr %98, i32 0, i32 1
  %100 = load i64, ptr %99, align 8, !tbaa !17
  %101 = load i32, ptr %9, align 4, !tbaa !11
  %102 = sext i32 %101 to i64
  %103 = sub i64 %100, %102
  call void @move_array(ptr noundef %91, ptr noundef %97, i64 noundef %103, i64 noundef 16)
  br label %104

104:                                              ; preds = %84, %77
  %105 = load ptr, ptr %6, align 8, !tbaa !4
  %106 = getelementptr inbounds nuw %struct.string_list, ptr %105, i32 0, i32 3
  %107 = load i8, ptr %106, align 8
  %108 = and i8 %107, 1
  %109 = zext i8 %108 to i32
  %110 = icmp ne i32 %109, 0
  br i1 %110, label %111, label %114

111:                                              ; preds = %104
  %112 = load ptr, ptr %7, align 8, !tbaa !9
  %113 = call ptr @xstrdup(ptr noundef %112)
  br label %116

114:                                              ; preds = %104
  %115 = load ptr, ptr %7, align 8, !tbaa !9
  br label %116

116:                                              ; preds = %114, %111
  %117 = phi ptr [ %113, %111 ], [ %115, %114 ]
  %118 = load ptr, ptr %6, align 8, !tbaa !4
  %119 = getelementptr inbounds nuw %struct.string_list, ptr %118, i32 0, i32 0
  %120 = load ptr, ptr %119, align 8, !tbaa !13
  %121 = load i32, ptr %9, align 4, !tbaa !11
  %122 = sext i32 %121 to i64
  %123 = getelementptr inbounds %struct.string_list_item, ptr %120, i64 %122
  %124 = getelementptr inbounds nuw %struct.string_list_item, ptr %123, i32 0, i32 0
  store ptr %117, ptr %124, align 8, !tbaa !19
  %125 = load ptr, ptr %6, align 8, !tbaa !4
  %126 = getelementptr inbounds nuw %struct.string_list, ptr %125, i32 0, i32 0
  %127 = load ptr, ptr %126, align 8, !tbaa !13
  %128 = load i32, ptr %9, align 4, !tbaa !11
  %129 = sext i32 %128 to i64
  %130 = getelementptr inbounds %struct.string_list_item, ptr %127, i64 %129
  %131 = getelementptr inbounds nuw %struct.string_list_item, ptr %130, i32 0, i32 1
  store ptr null, ptr %131, align 8, !tbaa !21
  %132 = load ptr, ptr %6, align 8, !tbaa !4
  %133 = getelementptr inbounds nuw %struct.string_list, ptr %132, i32 0, i32 1
  %134 = load i64, ptr %133, align 8, !tbaa !17
  %135 = add i64 %134, 1
  store i64 %135, ptr %133, align 8, !tbaa !17
  %136 = load i32, ptr %9, align 4, !tbaa !11
  store i32 %136, ptr %4, align 4
  store i32 1, ptr %10, align 4
  br label %137

137:                                              ; preds = %116, %23
  call void @llvm.lifetime.end.p0(i64 4, ptr %9) #9
  call void @llvm.lifetime.end.p0(i64 4, ptr %8) #9
  %138 = load i32, ptr %4, align 4
  ret i32 %138
}

; Function Attrs: nounwind uwtable
define dso_local ptr @string_list_insert(ptr noundef %0, ptr noundef %1) #0 {
  %3 = alloca ptr, align 8
  %4 = alloca ptr, align 8
  %5 = alloca i32, align 4
  store ptr %0, ptr %3, align 8, !tbaa !4
  store ptr %1, ptr %4, align 8, !tbaa !9
  call void @llvm.lifetime.start.p0(i64 4, ptr %5) #9
  %6 = load ptr, ptr %3, align 8, !tbaa !4
  %7 = load ptr, ptr %4, align 8, !tbaa !9
  %8 = call i32 @add_entry(i32 noundef -1, ptr noundef %6, ptr noundef %7)
  store i32 %8, ptr %5, align 4, !tbaa !11
  %9 = load i32, ptr %5, align 4, !tbaa !11
  %10 = icmp slt i32 %9, 0
  br i1 %10, label %11, label %14

11:                                               ; preds = %2
  %12 = load i32, ptr %5, align 4, !tbaa !11
  %13 = sub nsw i32 -1, %12
  store i32 %13, ptr %5, align 4, !tbaa !11
  br label %14

14:                                               ; preds = %11, %2
  %15 = load ptr, ptr %3, align 8, !tbaa !4
  %16 = getelementptr inbounds nuw %struct.string_list, ptr %15, i32 0, i32 0
  %17 = load ptr, ptr %16, align 8, !tbaa !13
  %18 = load i32, ptr %5, align 4, !tbaa !11
  %19 = sext i32 %18 to i64
  %20 = getelementptr inbounds %struct.string_list_item, ptr %17, i64 %19
  call void @llvm.lifetime.end.p0(i64 4, ptr %5) #9
  ret ptr %20
}