; Function Attrs: nounwind uwtable
define dso_local ptr @string_list_insert(ptr noundef captures(none) %0, ptr noundef %1) local_unnamed_addr #4 {
  %3 = getelementptr inbounds nuw i8, ptr %0, i64 8
  %4 = load i64, ptr %3, align 8, !tbaa !4
  %5 = trunc i64 %4 to i32
  %6 = getelementptr inbounds nuw i8, ptr %0, i64 32
  %7 = load ptr, ptr %6, align 8, !tbaa !12
  %.not.i.i = icmp eq ptr %7, null
  %spec.select.i.i = select i1 %.not.i.i, ptr @strcmp, ptr %7
  %8 = icmp sgt i32 %5, 0
  br i1 %8, label %.lr.ph.i.i, label %.loopexit.i

.lr.ph.i.i:                                       ; preds = %2, %19
  %.02236.i.i = phi i32 [ %.224.i.i, %19 ], [ -1, %2 ]
  %.02535.i.i = phi i32 [ %.227.i.i, %19 ], [ %5, %2 ]
  %9 = sub nsw i32 %.02535.i.i, %.02236.i.i
  %10 = sdiv i32 %9, 2
  %11 = add nsw i32 %10, %.02236.i.i
  %12 = load ptr, ptr %0, align 8, !tbaa !13
  %13 = sext i32 %11 to i64
  %14 = getelementptr inbounds %struct.string_list_item, ptr %12, i64 %13
  %15 = load ptr, ptr %14, align 8, !tbaa !14
  %16 = tail call i32 %spec.select.i.i(ptr noundef %1, ptr noundef %15) #11
  %17 = icmp slt i32 %16, 0
  br i1 %17, label %19, label %18

18:                                               ; preds = %.lr.ph.i.i
  %.not30.i.i = icmp eq i32 %16, 0
  br i1 %.not30.i.i, label %get_entry_index.exit.i, label %19

19:                                               ; preds = %18, %.lr.ph.i.i
  %.227.i.i = phi i32 [ %11, %.lr.ph.i.i ], [ %.02535.i.i, %18 ]
  %.224.i.i = phi i32 [ %.02236.i.i, %.lr.ph.i.i ], [ %11, %18 ]
  %20 = add nsw i32 %.224.i.i, 1
  %21 = icmp slt i32 %20, %.227.i.i
  br i1 %21, label %.lr.ph.i.i, label %.loopexit.loopexit.i, !llvm.loop !17

get_entry_index.exit.i:                           ; preds = %18
  %22 = xor i32 %11, -1
  %.pre = load ptr, ptr %0, align 8, !tbaa !13
  br label %add_entry.exit

.loopexit.loopexit.i:                             ; preds = %19
  %.pre.i = load i64, ptr %3, align 8, !tbaa !4
  br label %.loopexit.i

.loopexit.i:                                      ; preds = %.loopexit.loopexit.i, %2
  %23 = phi i64 [ %4, %2 ], [ %.pre.i, %.loopexit.loopexit.i ]
  %.2.i.ph.i = phi i32 [ %5, %2 ], [ %.227.i.i, %.loopexit.loopexit.i ]
  %24 = add i64 %23, 1
  %25 = getelementptr inbounds nuw i8, ptr %0, i64 16
  %26 = load i64, ptr %25, align 8, !tbaa !19
  %27 = icmp ugt i64 %24, %26
  br i1 %27, label %28, label %37

28:                                               ; preds = %.loopexit.i
  %29 = mul i64 %26, 3
  %30 = add i64 %29, 48
  %31 = lshr i64 %30, 1
  %..i = tail call i64 @llvm.umax.i64(i64 %31, i64 %24)
  store i64 %..i, ptr %25, align 8, !tbaa !19
  %32 = icmp ugt i64 %..i, 1152921504606846975
  br i1 %32, label %33, label %st_mult.exit.i

33:                                               ; preds = %28
  tail call void (ptr, ...) @die(ptr noundef nonnull @.str.6, i64 noundef 16, i64 noundef %..i) #12
  unreachable

st_mult.exit.i:                                   ; preds = %28
  %34 = load ptr, ptr %0, align 8, !tbaa !13
  %35 = shl nuw i64 %..i, 4
  %36 = tail call ptr @xrealloc(ptr noundef %34, i64 noundef %35) #11
  store ptr %36, ptr %0, align 8, !tbaa !13
  %.pre47.i = load i64, ptr %3, align 8, !tbaa !4
  br label %37

37:                                               ; preds = %st_mult.exit.i, %.loopexit.i
  %38 = phi i64 [ %.pre47.i, %st_mult.exit.i ], [ %23, %.loopexit.i ]
  %39 = sext i32 %.2.i.ph.i to i64
  %40 = icmp ugt i64 %38, %39
  br i1 %40, label %41, label %move_array.exit.i

41:                                               ; preds = %37
  %42 = sub nuw i64 %38, %39
  %43 = icmp ugt i64 %42, 1152921504606846975
  br i1 %43, label %44, label %st_mult.exit.i.i

44:                                               ; preds = %41
  tail call void (ptr, ...) @die(ptr noundef nonnull @.str.6, i64 noundef 16, i64 noundef %42) #12
  unreachable

st_mult.exit.i.i:                                 ; preds = %41
  %45 = load ptr, ptr %0, align 8, !tbaa !13
  %46 = getelementptr inbounds %struct.string_list_item, ptr %45, i64 %39
  %47 = getelementptr inbounds nuw i8, ptr %46, i64 16
  %48 = shl nuw i64 %42, 4
  tail call void @llvm.memmove.p0.p0.i64(ptr nonnull align 1 %47, ptr readonly align 1 %46, i64 %48, i1 false)
  br label %move_array.exit.i

move_array.exit.i:                                ; preds = %st_mult.exit.i.i, %37
  %49 = getelementptr inbounds nuw i8, ptr %0, i64 24
  %50 = load i8, ptr %49, align 8
  %51 = and i8 %50, 1
  %.not39.i = icmp eq i8 %51, 0
  br i1 %.not39.i, label %54, label %52

52:                                               ; preds = %move_array.exit.i
  %53 = tail call ptr @xstrdup(ptr noundef %1) #11
  br label %54

54:                                               ; preds = %52, %move_array.exit.i
  %55 = phi ptr [ %53, %52 ], [ %1, %move_array.exit.i ]
  %56 = load ptr, ptr %0, align 8, !tbaa !13
  %57 = getelementptr inbounds %struct.string_list_item, ptr %56, i64 %39
  store ptr %55, ptr %57, align 8, !tbaa !14
  %58 = getelementptr inbounds %struct.string_list_item, ptr %56, i64 %39, i32 1
  store ptr null, ptr %58, align 8, !tbaa !20
  %59 = load i64, ptr %3, align 8, !tbaa !4
  %60 = add i64 %59, 1
  store i64 %60, ptr %3, align 8, !tbaa !4
  br label %add_entry.exit

add_entry.exit:                                   ; preds = %get_entry_index.exit.i, %54
  %61 = phi ptr [ %.pre, %get_entry_index.exit.i ], [ %56, %54 ]
  %.0.i = phi i32 [ %22, %get_entry_index.exit.i ], [ %.2.i.ph.i, %54 ]
  %.0.i.lobit = ashr i32 %.0.i, 31
  %spec.select = xor i32 %.0.i.lobit, %.0.i
  %62 = zext nneg i32 %spec.select to i64
  %63 = getelementptr inbounds nuw %struct.string_list_item, ptr %61, i64 %62
  ret ptr %63
}